target datalayout = "e-m:e-p270:32:32-p271:32:32-p272:64:64-i64:64-i128:128-f80:128-n8:16:32:64-S128"
target triple = "x86_64-pc-linux-gnu"

%struct.stbtt__point = type { float, float }

; Function Attrs: nounwind uwtable
define internal void @stbtt__add_point(ptr noundef %0, i32 noundef %1, float noundef %2, float noundef %3) #0 {
  %5 = alloca ptr, align 8
  %6 = alloca i32, align 4
  %7 = alloca float, align 4
  %8 = alloca float, align 4
  store ptr %0, ptr %5, align 8
  store i32 %1, ptr %6, align 4
  store float %2, ptr %7, align 4
  store float %3, ptr %8, align 4
  %9 = load ptr, ptr %5, align 8
  %10 = icmp ne ptr %9, null
  br i1 %10, label %12, label %11

11:                                               ; preds = %4
  br label %25

12:                                               ; preds = %4
  %13 = load float, ptr %7, align 4
  %14 = load ptr, ptr %5, align 8
  %15 = load i32, ptr %6, align 4
  %16 = sext i32 %15 to i64
  %17 = getelementptr inbounds %struct.stbtt__point, ptr %14, i64 %16
  %18 = getelementptr inbounds nuw %struct.stbtt__point, ptr %17, i32 0, i32 0
  store float %13, ptr %18, align 4
  %19 = load float, ptr %8, align 4
  %20 = load ptr, ptr %5, align 8
  %21 = load i32, ptr %6, align 4
  %22 = sext i32 %21 to i64
  %23 = getelementptr inbounds %struct.stbtt__point, ptr %20, i64 %22
  %24 = getelementptr inbounds nuw %struct.stbtt__point, ptr %23, i32 0, i32 1
  store float %19, ptr %24, align 4
  br label %25

25:                                               ; preds = %12, %11
  ret void
}

; Function Attrs: nounwind uwtable
define internal void @stbtt__tesselate_cubic(ptr noundef %0, ptr noundef %1, float noundef %2, float noundef %3, float noundef %4, float noundef %5, float noundef %6, float noundef %7, float noundef %8, float noundef %9, float noundef %10, i32 noundef %11) #0 {
  %13 = alloca ptr, align 8
  %14 = alloca ptr, align 8
  %15 = alloca float, align 4
  %16 = alloca float, align 4
  %17 = alloca float, align 4
  %18 = alloca float, align 4
  %19 = alloca float, align 4
  %20 = alloca float, align 4
  %21 = alloca float, align 4
  %22 = alloca float, align 4
  %23 = alloca float, align 4
  %24 = alloca i32, align 4
  %25 = alloca float, align 4
  %26 = alloca float, align 4
  %27 = alloca float, align 4
  %28 = alloca float, align 4
  %29 = alloca float, align 4
  %30 = alloca float, align 4
  %31 = alloca float, align 4
  %32 = alloca float, align 4
  %33 = alloca float, align 4
  %34 = alloca float, align 4
  %35 = alloca float, align 4
  %36 = alloca i32, align 4
  %37 = alloca float, align 4
  %38 = alloca float, align 4
  %39 = alloca float, align 4
  %40 = alloca float, align 4
  %41 = alloca float, align 4
  %42 = alloca float, align 4
  %43 = alloca float, align 4
  %44 = alloca float, align 4
  %45 = alloca float, align 4
  %46 = alloca float, align 4
  %47 = alloca float, align 4
  %48 = alloca float, align 4
  store ptr %0, ptr %13, align 8
  store ptr %1, ptr %14, align 8
  store float %2, ptr %15, align 4
  store float %3, ptr %16, align 4
  store float %4, ptr %17, align 4
  store float %5, ptr %18, align 4
  store float %6, ptr %19, align 4
  store float %7, ptr %20, align 4
  store float %8, ptr %21, align 4
  store float %9, ptr %22, align 4
  store float %10, ptr %23, align 4
  store i32 %11, ptr %24, align 4
  call void @llvm.lifetime.start.p0(i64 4, ptr %25) #13
  %49 = load float, ptr %17, align 4
  %50 = load float, ptr %15, align 4
  %51 = fsub float %49, %50
  store float %51, ptr %25, align 4
  call void @llvm.lifetime.start.p0(i64 4, ptr %26) #13
  %52 = load float, ptr %18, align 4
  %53 = load float, ptr %16, align 4
  %54 = fsub float %52, %53
  store float %54, ptr %26, align 4
  call void @llvm.lifetime.start.p0(i64 4, ptr %27) #13
  %55 = load float, ptr %19, align 4
  %56 = load float, ptr %17, align 4
  %57 = fsub float %55, %56
  store float %57, ptr %27, align 4
  call void @llvm.lifetime.start.p0(i64 4, ptr %28) #13
  %58 = load float, ptr %20, align 4
  %59 = load float, ptr %18, align 4
  %60 = fsub float %58, %59
  store float %60, ptr %28, align 4
  call void @llvm.lifetime.start.p0(i64 4, ptr %29) #13
  %61 = load float, ptr %21, align 4
  %62 = load float, ptr %19, align 4
  %63 = fsub float %61, %62
  store float %63, ptr %29, align 4
  call void @llvm.lifetime.start.p0(i64 4, ptr %30) #13
  %64 = load float, ptr %22, align 4
  %65 = load float, ptr %20, align 4
  %66 = fsub float %64, %65
  store float %66, ptr %30, align 4
  call void @llvm.lifetime.start.p0(i64 4, ptr %31) #13
  %67 = load float, ptr %21, align 4
  %68 = load float, ptr %15, align 4
  %69 = fsub float %67, %68
  store float %69, ptr %31, align 4
  call void @llvm.lifetime.start.p0(i64 4, ptr %32) #13
  %70 = load float, ptr %22, align 4
  %71 = load float, ptr %16, align 4
  %72 = fsub float %70, %71
  store float %72, ptr %32, align 4
  call void @llvm.lifetime.start.p0(i64 4, ptr %33) #13
  %73 = load float, ptr %25, align 4
  %74 = load float, ptr %25, align 4
  %75 = load float, ptr %26, align 4
  %76 = load float, ptr %26, align 4
  %77 = fmul float %75, %76
  %78 = call float @llvm.fmuladd.f32(float %73, float %74, float %77)
  %79 = fpext float %78 to double
  %80 = call double @sqrt(double noundef %79) #13
  %81 = load float, ptr %27, align 4
  %82 = load float, ptr %27, align 4
  %83 = load float, ptr %28, align 4
  %84 = load float, ptr %28, align 4
  %85 = fmul float %83, %84
  %86 = call float @llvm.fmuladd.f32(float %81, float %82, float %85)
  %87 = fpext float %86 to double
  %88 = call double @sqrt(double noundef %87) #13
  %89 = fadd double %80, %88
  %90 = load float, ptr %29, align 4
  %91 = load float, ptr %29, align 4
  %92 = load float, ptr %30, align 4
  %93 = load float, ptr %30, align 4
  %94 = fmul float %92, %93
  %95 = call float @llvm.fmuladd.f32(float %90, float %91, float %94)
  %96 = fpext float %95 to double
  %97 = call double @sqrt(double noundef %96) #13
  %98 = fadd double %89, %97
  %99 = fptrunc double %98 to float
  store float %99, ptr %33, align 4
  call void @llvm.lifetime.start.p0(i64 4, ptr %34) #13
  %100 = load float, ptr %31, align 4
  %101 = load float, ptr %31, align 4
  %102 = load float, ptr %32, align 4
  %103 = load float, ptr %32, align 4
  %104 = fmul float %102, %103
  %105 = call float @llvm.fmuladd.f32(float %100, float %101, float %104)
  %106 = fpext float %105 to double
  %107 = call double @sqrt(double noundef %106) #13
  %108 = fptrunc double %107 to float
  store float %108, ptr %34, align 4
  call void @llvm.lifetime.start.p0(i64 4, ptr %35) #13
  %109 = load float, ptr %33, align 4
  %110 = load float, ptr %33, align 4
  %111 = load float, ptr %34, align 4
  %112 = load float, ptr %34, align 4
  %113 = fmul float %111, %112
  %114 = fneg float %113
  %115 = call float @llvm.fmuladd.f32(float %109, float %110, float %114)
  store float %115, ptr %35, align 4
  %116 = load i32, ptr %24, align 4
  %117 = icmp sgt i32 %116, 16
  br i1 %117, label %118, label %119

118:                                              ; preds = %12
  store i32 1, ptr %36, align 4
  br label %209

119:                                              ; preds = %12
  %120 = load float, ptr %35, align 4
  %121 = load float, ptr %23, align 4
  %122 = fcmp ogt float %120, %121
  br i1 %122, label %123, label %198

123:                                              ; preds = %119
  call void @llvm.lifetime.start.p0(i64 4, ptr %37) #13
  %124 = load float, ptr %15, align 4
  %125 = load float, ptr %17, align 4
  %126 = fadd float %124, %125
  %127 = fdiv float %126, 2.000000e+00
  store float %127, ptr %37, align 4
  call void @llvm.lifetime.start.p0(i64 4, ptr %38) #13
  %128 = load float, ptr %16, align 4
  %129 = load float, ptr %18, align 4
  %130 = fadd float %128, %129
  %131 = fdiv float %130, 2.000000e+00
  store float %131, ptr %38, align 4
  call void @llvm.lifetime.start.p0(i64 4, ptr %39) #13
  %132 = load float, ptr %17, align 4
  %133 = load float, ptr %19, align 4
  %134 = fadd float %132, %133
  %135 = fdiv float %134, 2.000000e+00
  store float %135, ptr %39, align 4
  call void @llvm.lifetime.start.p0(i64 4, ptr %40) #13
  %136 = load float, ptr %18, align 4
  %137 = load float, ptr %20, align 4
  %138 = fadd float %136, %137
  %139 = fdiv float %138, 2.000000e+00
  store float %139, ptr %40, align 4
  call void @llvm.lifetime.start.p0(i64 4, ptr %41) #13
  %140 = load float, ptr %19, align 4
  %141 = load float, ptr %21, align 4
  %142 = fadd float %140, %141
  %143 = fdiv float %142, 2.000000e+00
  store float %143, ptr %41, align 4
  call void @llvm.lifetime.start.p0(i64 4, ptr %42) #13
  %144 = load float, ptr %20, align 4
  %145 = load float, ptr %22, align 4
  %146 = fadd float %144, %145
  %147 = fdiv float %146, 2.000000e+00
  store float %147, ptr %42, align 4
  call void @llvm.lifetime.start.p0(i64 4, ptr %43) #13
  %148 = load float, ptr %37, align 4
  %149 = load float, ptr %39, align 4
  %150 = fadd float %148, %149
  %151 = fdiv float %150, 2.000000e+00
  store float %151, ptr %43, align 4
  call void @llvm.lifetime.start.p0(i64 4, ptr %44) #13
  %152 = load float, ptr %38, align 4
  %153 = load float, ptr %40, align 4
  %154 = fadd float %152, %153
  %155 = fdiv float %154, 2.000000e+00
  store float %155, ptr %44, align 4
  call void @llvm.lifetime.start.p0(i64 4, ptr %45) #13
  %156 = load float, ptr %39, align 4
  %157 = load float, ptr %41, align 4
  %158 = fadd float %156, %157
  %159 = fdiv float %158, 2.000000e+00
  store float %159, ptr %45, align 4
  call void @llvm.lifetime.start.p0(i64 4, ptr %46) #13
  %160 = load float, ptr %40, align 4
  %161 = load float, ptr %42, align 4
  %162 = fadd float %160, %161
  %163 = fdiv float %162, 2.000000e+00
  store float %163, ptr %46, align 4
  call void @llvm.lifetime.start.p0(i64 4, ptr %47) #13
  %164 = load float, ptr %43, align 4
  %165 = load float, ptr %45, align 4
  %166 = fadd float %164, %165
  %167 = fdiv float %166, 2.000000e+00
  store float %167, ptr %47, align 4
  call void @llvm.lifetime.start.p0(i64 4, ptr %48) #13
  %168 = load float, ptr %44, align 4
  %169 = load float, ptr %46, align 4
  %170 = fadd float %168, %169
  %171 = fdiv float %170, 2.000000e+00
  store float %171, ptr %48, align 4
  %172 = load ptr, ptr %13, align 8
  %173 = load ptr, ptr %14, align 8
  %174 = load float, ptr %15, align 4
  %175 = load float, ptr %16, align 4
  %176 = load float, ptr %37, align 4
  %177 = load float, ptr %38, align 4
  %178 = load float, ptr %43, align 4
  %179 = load float, ptr %44, align 4
  %180 = load float, ptr %47, align 4
  %181 = load float, ptr %48, align 4
  %182 = load float, ptr %23, align 4
  %183 = load i32, ptr %24, align 4
  %184 = add nsw i32 %183, 1
  call void @stbtt__tesselate_cubic(ptr noundef %172, ptr noundef %173, float noundef %174, float noundef %175, float noundef %176, float noundef %177, float noundef %178, float noundef %179, float noundef %180, float noundef %181, float noundef %182, i32 noundef %184)
  %185 = load ptr, ptr %13, align 8
  %186 = load ptr, ptr %14, align 8
  %187 = load float, ptr %47, align 4
  %188 = load float, ptr %48, align 4
  %189 = load float, ptr %45, align 4
  %190 = load float, ptr %46, align 4
  %191 = load float, ptr %41, align 4
  %192 = load float, ptr %42, align 4
  %193 = load float, ptr %21, align 4
  %194 = load float, ptr %22, align 4
  %195 = load float, ptr %23, align 4
  %196 = load i32, ptr %24, align 4
  %197 = add nsw i32 %196, 1
  call void @stbtt__tesselate_cubic(ptr noundef %185, ptr noundef %186, float noundef %187, float noundef %188, float noundef %189, float noundef %190, float noundef %191, float noundef %192, float noundef %193, float noundef %194, float noundef %195, i32 noundef %197)
  call void @llvm.lifetime.end.p0(i64 4, ptr %48) #13
  call void @llvm.lifetime.end.p0(i64 4, ptr %47) #13
  call void @llvm.lifetime.end.p0(i64 4, ptr %46) #13
  call void @llvm.lifetime.end.p0(i64 4, ptr %45) #13
  call void @llvm.lifetime.end.p0(i64 4, ptr %44) #13
  call void @llvm.lifetime.end.p0(i64 4, ptr %43) #13
  call void @llvm.lifetime.end.p0(i64 4, ptr %42) #13
  call void @llvm.lifetime.end.p0(i64 4, ptr %41) #13
  call void @llvm.lifetime.end.p0(i64 4, ptr %40) #13
  call void @llvm.lifetime.end.p0(i64 4, ptr %39) #13
  call void @llvm.lifetime.end.p0(i64 4, ptr %38) #13
  call void @llvm.lifetime.end.p0(i64 4, ptr %37) #13
  br label %208

198:                                              ; preds = %119
  %199 = load ptr, ptr %13, align 8
  %200 = load ptr, ptr %14, align 8
  %201 = load i32, ptr %200, align 4
  %202 = load float, ptr %21, align 4
  %203 = load float, ptr %22, align 4
  call void @stbtt__add_point(ptr noundef %199, i32 noundef %201, float noundef %202, float noundef %203)
  %204 = load ptr, ptr %14, align 8
  %205 = load i32, ptr %204, align 4
  %206 = add nsw i32 %205, 1
  %207 = load ptr, ptr %14, align 8
  store i32 %206, ptr %207, align 4
  br label %208

208:                                              ; preds = %198, %123
  store i32 0, ptr %36, align 4
  br label %209

209:                                              ; preds = %208, %118
  call void @llvm.lifetime.end.p0(i64 4, ptr %35) #13
  call void @llvm.lifetime.end.p0(i64 4, ptr %34) #13
  call void @llvm.lifetime.end.p0(i64 4, ptr %33) #13
  call void @llvm.lifetime.end.p0(i64 4, ptr %32) #13
  call void @llvm.lifetime.end.p0(i64 4, ptr %31) #13
  call void @llvm.lifetime.end.p0(i64 4, ptr %30) #13
  call void @llvm.lifetime.end.p0(i64 4, ptr %29) #13
  call void @llvm.lifetime.end.p0(i64 4, ptr %28) #13
  call void @llvm.lifetime.end.p0(i64 4, ptr %27) #13
  call void @llvm.lifetime.end.p0(i64 4, ptr %26) #13
  call void @llvm.lifetime.end.p0(i64 4, ptr %25) #13
  %210 = load i32, ptr %36, align 4
  switch i32 %210, label %212 [
    i32 0, label %211
    i32 1, label %211
  ]

211:                                              ; preds = %209, %209
  ret void

212:                                              ; preds = %209
  unreachable
}